; Function Attrs: mustprogress uwtable
define void @_ZN2cv4gapi3wip15QueueSourceBaseC2ERKNS_4util7variantIJNS3_9monostateENS_8GMatDescENS_11GScalarDescENS_10GArrayDescENS_11GOpaqueDescENS_10GFrameDescEEEE(ptr noundef nonnull align 8 dereferenceable(40) %0, ptr noundef nonnull align 8 dereferenceable(56) %1) unnamed_addr #3 align 2 personality ptr @__gxx_personality_v0 {
  %3 = getelementptr inbounds i8, ptr %0, i64 8
  tail call void @llvm.memset.p0.i64(ptr noundef nonnull align 8 dereferenceable(16) %3, i8 0, i64 16, i1 false)
  store ptr getelementptr inbounds inrange(-16, 40) (i8, ptr @_ZTVN2cv4gapi3wip15QueueSourceBaseE, i64 16), ptr %0, align 8
  %4 = getelementptr inbounds i8, ptr %0, i64 24
  %5 = invoke noalias noundef nonnull dereferenceable(296) ptr @_Znwm(i64 noundef 296) #16
          to label %6 unwind label %9

6:                                                ; preds = %2
  invoke void @_ZN2cv4gapi3wip15QueueSourceBase4PrivC2ERKNS_4util7variantIJNS4_9monostateENS_8GMatDescENS_11GScalarDescENS_10GArrayDescENS_11GOpaqueDescENS_10GFrameDescEEEE(ptr noundef nonnull align 8 dereferenceable(289) %5, ptr noundef nonnull align 8 dereferenceable(56) %1)
          to label %7 unwind label %11

7:                                                ; preds = %6
  store ptr %5, ptr %4, align 8
  %8 = getelementptr inbounds i8, ptr %0, i64 32
  invoke void @_ZNSt14__shared_countILN9__gnu_cxx12_Lock_policyE2EEC2IPN2cv4gapi3wip15QueueSourceBase4PrivEEET_(ptr noundef nonnull align 8 dereferenceable(8) %8, ptr noundef nonnull %5)
          to label %_ZNSt10shared_ptrIN2cv4gapi3wip15QueueSourceBase4PrivEEC2IS4_vEEPT_.exit unwind label %9

_ZNSt10shared_ptrIN2cv4gapi3wip15QueueSourceBase4PrivEEC2IS4_vEEPT_.exit: ; preds = %7
  ret void

9:                                                ; preds = %7, %2
  %10 = landingpad { ptr, i32 }
          cleanup
  br label %13

11:                                               ; preds = %6
  %12 = landingpad { ptr, i32 }
          cleanup
  tail call void @_ZdlPv(ptr noundef nonnull %5) #17
  br label %13

13:                                               ; preds = %11, %9
  %.pn = phi { ptr, i32 } [ %10, %9 ], [ %12, %11 ]
  tail call void @_ZN2cv4gapi3wip13IStreamSourceD2Ev(ptr noundef nonnull align 8 dereferenceable(24) %0) #18
  resume { ptr, i32 } %.pn
}